; Function Attrs: nounwind uwtable
define void @Gia_ObjComputeTruthTable6_rec(ptr noundef %0, ptr noundef %1, ptr noundef %2) local_unnamed_addr #2 {
  %4 = getelementptr inbounds nuw i8, ptr %0, i64 616
  %5 = load ptr, ptr %4, align 8, !tbaa !43
  %6 = getelementptr i8, ptr %0, i64 32
  %.val.i = load ptr, ptr %6, align 8, !tbaa !3
  %7 = ptrtoint ptr %1 to i64
  %8 = ptrtoint ptr %.val.i to i64
  %9 = sub i64 %7, %8
  %10 = sdiv exact i64 %9, 12
  %sext.i = shl i64 %10, 32
  %11 = ashr exact i64 %sext.i, 30
  %12 = getelementptr inbounds i8, ptr %5, i64 %11
  %13 = load i32, ptr %12, align 4, !tbaa !31
  %14 = getelementptr inbounds nuw i8, ptr %0, i64 176
  %15 = load i32, ptr %14, align 8, !tbaa !42
  %.not = icmp eq i32 %13, %15
  br i1 %.not, label %66, label %16

16:                                               ; preds = %3
  store i32 %15, ptr %12, align 4, !tbaa !31
  %17 = load i64, ptr %1, align 4
  %18 = and i64 %17, 536870911
  %19 = sub nsw i64 0, %18
  %20 = getelementptr inbounds %struct.Gia_Obj_t_, ptr %1, i64 %19
  tail call void @Gia_ObjComputeTruthTable6_rec(ptr noundef nonnull %0, ptr noundef nonnull %20, ptr noundef %2)
  %21 = load i64, ptr %1, align 4
  %22 = lshr i64 %21, 32
  %23 = and i64 %22, 536870911
  %24 = sub nsw i64 0, %23
  %25 = getelementptr inbounds %struct.Gia_Obj_t_, ptr %1, i64 %24
  tail call void @Gia_ObjComputeTruthTable6_rec(ptr noundef nonnull %0, ptr noundef nonnull %25, ptr noundef %2)
  %26 = load i64, ptr %1, align 4
  %27 = and i64 %26, 536870911
  %28 = sub nsw i64 0, %27
  %29 = getelementptr inbounds %struct.Gia_Obj_t_, ptr %1, i64 %28, i32 1
  %30 = load i32, ptr %29, align 4, !tbaa !52
  %31 = getelementptr i8, ptr %2, i64 8
  %.val29 = load ptr, ptr %31, align 8, !tbaa !44
  %32 = sext i32 %30 to i64
  %33 = getelementptr inbounds i64, ptr %.val29, i64 %32
  %34 = load i64, ptr %33, align 8, !tbaa !28
  %35 = trunc i64 %26 to i32
  %36 = shl i32 %35, 2
  %37 = ashr i32 %36, 31
  %38 = sext i32 %37 to i64
  %39 = xor i64 %34, %38
  %40 = lshr i64 %26, 32
  %41 = and i64 %40, 536870911
  %42 = sub nsw i64 0, %41
  %43 = getelementptr inbounds %struct.Gia_Obj_t_, ptr %1, i64 %42, i32 1
  %44 = load i32, ptr %43, align 4, !tbaa !52
  %45 = sext i32 %44 to i64
  %46 = getelementptr inbounds i64, ptr %.val29, i64 %45
  %47 = load i64, ptr %46, align 8, !tbaa !28
  %48 = shl i64 %26, 2
  %49 = ashr i64 %48, 63
  %50 = xor i64 %47, %49
  %51 = getelementptr i8, ptr %2, i64 4
  %.val30 = load i32, ptr %51, align 4, !tbaa !54
  %52 = getelementptr inbounds nuw i8, ptr %1, i64 8
  store i32 %.val30, ptr %52, align 4, !tbaa !52
  %53 = and i64 %50, %39
  %54 = load i32, ptr %2, align 8, !tbaa !55
  %55 = icmp eq i32 %.val30, %54
  br i1 %55, label %Vec_WrdPush.exit.sink.split, label %Vec_WrdPush.exit

Vec_WrdPush.exit.sink.split:                      ; preds = %16
  %56 = icmp slt i32 %.val30, 16
  %57 = shl nuw nsw i32 %.val30, 1
  %58 = zext nneg i32 %57 to i64
  %59 = shl nuw nsw i64 %58, 3
  %.sink34 = select i1 %56, i64 128, i64 %59
  %.sink = select i1 %56, i32 16, i32 %57
  %60 = tail call ptr @realloc(ptr noundef nonnull %.val29, i64 noundef %.sink34) #25
  store ptr %60, ptr %31, align 8, !tbaa !44
  store i32 %.sink, ptr %2, align 8, !tbaa !55
  br label %Vec_WrdPush.exit

Vec_WrdPush.exit:                                 ; preds = %Vec_WrdPush.exit.sink.split, %16
  %61 = phi ptr [ %.val29, %16 ], [ %60, %Vec_WrdPush.exit.sink.split ]
  %62 = load i32, ptr %51, align 4, !tbaa !54
  %63 = add nsw i32 %62, 1
  store i32 %63, ptr %51, align 4, !tbaa !54
  %64 = sext i32 %62 to i64
  %65 = getelementptr inbounds i64, ptr %61, i64 %64
  store i64 %53, ptr %65, align 8, !tbaa !28
  br label %66

66:                                               ; preds = %3, %Vec_WrdPush.exit
  ret void
}